; Function Attrs: null_pointer_is_valid sspstrong uwtable
define internal i32 @winreg_dissect_NotifyChangeKeyValue_request(ptr noundef %0, i32 noundef %1, ptr noundef %2, ptr noundef %3, ptr noundef initializes((72, 80)) %4, ptr noundef %5) #0 {
  %7 = getelementptr inbounds nuw i8, ptr %4, i64 72
  store ptr @.str.310, ptr %7, align 8
  %8 = load i32, ptr @hf_winreg_handle, align 4
  %9 = tail call i32 @dissect_ndr_toplevel_pointer(ptr noundef %0, i32 noundef %1, ptr noundef %2, ptr noundef %3, ptr noundef %4, ptr noundef %5, ptr noundef nonnull @winreg_dissect_element_NotifyChangeKeyValue_handle_, i32 noundef 1, ptr noundef nonnull @.str.336, i32 noundef %8)
  %10 = tail call i32 @dissect_deferred_pointers(ptr noundef %2, ptr noundef %0, i32 noundef %9, ptr noundef %4, ptr noundef %5)
  %11 = load i32, ptr @hf_winreg_winreg_NotifyChangeKeyValue_watch_subtree, align 4
  %12 = tail call i32 @PIDL_dissect_uint8(ptr noundef %0, i32 noundef %10, ptr noundef %2, ptr noundef %3, ptr noundef %4, ptr noundef %5, i32 noundef %11, i32 noundef 0)
  %13 = tail call i32 @dissect_deferred_pointers(ptr noundef %2, ptr noundef %0, i32 noundef %12, ptr noundef %4, ptr noundef %5)
  %14 = load i32, ptr @hf_winreg_winreg_NotifyChangeKeyValue_notify_filter, align 4
  %15 = tail call i32 @winreg_dissect_bitmap_NotifyChangeType(ptr noundef %0, i32 noundef %13, ptr noundef %2, ptr noundef %3, ptr noundef %4, ptr noundef %5, i32 noundef %14, i32 poison)
  %16 = tail call i32 @dissect_deferred_pointers(ptr noundef %2, ptr noundef %0, i32 noundef %15, ptr noundef %4, ptr noundef %5)
  %17 = load i32, ptr @hf_winreg_winreg_NotifyChangeKeyValue_unknown, align 4
  %18 = tail call i32 @PIDL_dissect_uint32(ptr noundef %0, i32 noundef %16, ptr noundef %2, ptr noundef %3, ptr noundef %4, ptr noundef %5, i32 noundef %17, i32 noundef 0)
  %19 = tail call i32 @dissect_deferred_pointers(ptr noundef %2, ptr noundef %0, i32 noundef %18, ptr noundef %4, ptr noundef %5)
  %20 = load i32, ptr @hf_winreg_winreg_NotifyChangeKeyValue_string1, align 4
  %21 = tail call fastcc i32 @cnf_dissect_winreg_String(ptr noundef %0, i32 noundef %19, ptr noundef %2, ptr noundef %3, ptr noundef %4, ptr noundef %5, i32 noundef 0, i32 noundef %20)
  %22 = tail call i32 @dissect_deferred_pointers(ptr noundef %2, ptr noundef %0, i32 noundef %21, ptr noundef %4, ptr noundef %5)
  %23 = load i32, ptr @hf_winreg_winreg_NotifyChangeKeyValue_string2, align 4
  %24 = tail call fastcc i32 @cnf_dissect_winreg_String(ptr noundef %0, i32 noundef %22, ptr noundef %2, ptr noundef %3, ptr noundef %4, ptr noundef %5, i32 noundef 0, i32 noundef %23)
  %25 = tail call i32 @dissect_deferred_pointers(ptr noundef %2, ptr noundef %0, i32 noundef %24, ptr noundef %4, ptr noundef %5)
  %26 = load i32, ptr @hf_winreg_winreg_NotifyChangeKeyValue_unknown2, align 4
  %27 = tail call i32 @PIDL_dissect_uint32(ptr noundef %0, i32 noundef %25, ptr noundef %2, ptr noundef %3, ptr noundef %4, ptr noundef %5, i32 noundef %26, i32 noundef 0)
  %28 = tail call i32 @dissect_deferred_pointers(ptr noundef %2, ptr noundef %0, i32 noundef %27, ptr noundef %4, ptr noundef %5)
  ret i32 %28
}